Certificate:
    Data:
        Version: 3 (0x2)
        Serial Number: 16 (0x10)
        Signature Algorithm: sha256WithRSAEncryption
        Issuer: CN=ca.tc2007b.tec.mx, ST=NL, C=MX/emailAddress=juan.jose.gaytan@tec.mx, O=Tec de Monterrey, OU=TC2007B
        Validity
            Not Before: Nov 24 00:02:55 2023 GMT
            Not After : Nov 23 00:02:55 2024 GMT
        Subject: CN=equipo19.tc2007b.tec.mx, ST=NL, C=MX/emailAddress=equipo19@tec.mx, O=TC2007B, OU=Equipo 19
        Subject Public Key Info:
            Public Key Algorithm: rsaEncryption
                RSA Public-Key: (4096 bit)
                Modulus:
                    00:e3:52:bf:7c:6d:e1:ad:c7:7b:c2:94:54:c2:b0:
                    1e:29:70:7a:2d:39:6e:23:8f:9d:1b:9c:6b:d0:42:
                    45:3b:38:dc:00:97:a8:1f:0c:05:b5:9d:17:f6:fa:
                    bd:b1:02:e2:e7:58:05:7d:23:c9:ca:58:6b:83:b3:
                    27:cc:bd:f6:67:fb:7c:9d:d0:18:5e:28:4f:b0:87:
                    35:23:8d:43:47:26:a4:d6:a3:cd:d3:57:d4:e8:34:
                    f9:fa:ef:4f:f9:fa:05:e7:91:b0:f7:3c:3e:f9:a7:
                    a8:77:9c:6b:14:49:ec:25:7e:b8:ba:27:34:4e:3b:
                    36:b1:ae:e9:31:ac:d0:cc:6d:cf:b2:0b:ef:b5:8f:
                    d5:5c:4c:1f:c8:78:97:b3:a2:01:a3:96:ee:fe:ff:
                    67:1f:a7:48:9f:9b:b1:c6:13:29:41:f4:a7:8a:a5:
                    ce:18:97:36:fc:0b:10:7c:96:aa:2f:ab:a0:ed:95:
                    ee:f7:3f:2c:6b:ec:13:6a:2b:ed:bd:a3:93:d9:e0:
                    84:a5:fb:27:42:7d:75:ef:f3:80:f1:51:6b:12:6d:
                    27:77:7b:c6:5e:da:36:c5:b3:b4:f0:7c:83:2a:62:
                    fe:0d:91:37:f8:31:25:d8:45:95:b3:d7:1f:f6:07:
                    32:f9:71:d4:25:21:f5:fe:c9:fd:0f:47:0e:be:7a:
                    4d:94:f2:5a:ec:4d:60:d7:70:5e:c8:e9:1b:ac:a5:
                    53:45:3c:d5:dd:c9:1a:78:4d:0d:69:bb:71:fe:c6:
                    3b:bf:84:f0:0d:75:7f:de:19:99:15:84:be:37:2d:
                    cd:79:f0:d7:72:99:fb:a0:df:82:37:24:b4:a9:b7:
                    e5:fb:cb:1f:3f:08:be:39:b0:5d:69:0f:14:54:e5:
                    cd:9a:d6:db:c5:4d:57:f7:05:bc:dc:f6:eb:0c:26:
                    4a:19:b3:70:c2:b4:e7:1f:41:14:f7:08:0d:fc:8a:
                    83:ca:3d:8b:78:a1:97:19:c9:f8:6f:da:c4:e5:c4:
                    e3:30:e0:74:73:97:76:d9:20:17:05:7b:e1:a4:22:
                    1c:e0:04:33:a3:89:2c:73:6b:44:ec:27:53:0b:82:
                    53:67:18:09:fb:38:9b:a7:17:7c:ed:9a:53:7b:bc:
                    f8:ab:a7:03:63:4f:14:3f:1e:bc:e9:bc:ac:0b:f4:
                    91:f5:b2:ae:53:47:fc:25:67:76:2a:72:5b:14:65:
                    7b:98:41:fd:47:0f:85:76:71:89:7c:c2:bd:54:fc:
                    14:32:7e:0e:81:7a:5e:dd:7e:db:08:e9:d4:69:35:
                    42:82:e8:d0:1f:14:33:c8:94:b3:be:6f:6a:af:14:
                    0e:73:5f:14:9f:37:0d:42:ed:e2:f6:69:63:01:3f:
                    d2:04:b1
                Exponent: 65537 (0x10001)
        X509v3 extensions:
            X509v3 Basic Constraints:
                CA:FALSE
            X509v3 Key Usage:
                Digital Signature, Non Repudiation, Key Encipherment
            X509v3 Subject Alternative Name:
                DNS:equipo19.tc2007b.tec.mx
            X509v3 Extended Key Usage:
                TLS Web Server Authentication, TLS Web Client Authentication
    Signature Algorithm: sha256WithRSAEncryption
         67:3a:4f:8c:b7:29:8d:9d:95:23:34:61:36:e2:d1:5e:ba:d8:
         38:72:ae:89:96:e9:24:b8:fc:f3:fd:31:14:dd:49:d6:7e:2a:
         2a:16:ba:2d:04:cf:ad:9e:12:6b:66:38:a2:a7:1e:d3:75:e5:
         a8:db:d2:c9:98:bc:ff:d5:f0:20:53:80:14:73:bc:86:0a:ac:
         eb:95:4f:d0:4c:23:8c:0a:27:a7:f1:84:a4:4f:9f:22:a5:0d:
         48:8e:17:43:c7:dc:db:63:4c:fe:f1:ac:33:e8:66:15:18:7a:
         9d:6d:dc:32:7c:ff:55:6a:b4:21:2b:18:91:ea:35:af:1d:8e:
         7f:98:8a:aa:c7:fa:e4:5e:96:70:69:80:c6:e9:2d:da:3b:d9:
         68:51:ae:e5:11:63:ef:a8:f1:a8:e2:ce:71:36:e4:5f:47:fb:
         b3:48:f7:4f:13:b4:a8:8e:09:32:7a:a0:36:45:31:a7:28:7d:
         f3:51:fd:e0:72:51:d5:d0:86:c1:2c:9a:91:59:dc:79:7e:62:
         51:e0:19:36:b3:8a:98:b2:61:8d:87:19:7a:31:27:89:d8:66:
         fc:88:6d:fc:36:5e:bc:31:e3:35:6f:5a:e9:0f:29:3d:b9:0f:
         0c:5b:02:5d:ed:ee:79:82:65:2d:30:e0:1e:17:03:1b:7a:d3:
         a6:54:6d:10:41:af:ab:34:71:5d:4a:5e:98:4c:ff:15:81:17:
         a5:fc:7c:be:28:f0:f1:86:48:ec:b1:1f:a7:23:ab:ee:36:eb:
         1b:65:95:3b:ec:ec:eb:77:6d:e6:af:af:f4:c0:29:18:3a:09:
         e8:71:4c:34:3e:f2:71:d4:38:76:b3:cc:4e:e0:05:26:6b:84:
         d4:83:66:a9:1f:2d:1a:2a:49:91:06:c6:86:8b:78:77:4a:3f:
         a3:54:af:e1:ac:a5:11:25:5d:6d:b3:68:c4:cf:d7:59:99:f7:
         09:62:75:3d:38:2f:10:dd:8d:87:8d:65:ef:fb:90:3b:74:8e:
         54:3b:a7:7c:5a:a6:7e:9d:51:31:9f:be:96:b8:b1:8f:ca:9a:
         dc:76:f7:a2:24:d1:d4:27:dc:31:2b:ca:81:25:17:2e:95:fd:
         01:83:1b:54:0c:6a:08:3a:e2:9f:29:0c:2a:7e:2a:a4:db:89:
         fd:be:38:25:b3:0d:1c:7a:77:de:f0:81:a5:1f:df:35:0b:a6:
         0f:75:52:53:54:19:39:cf:1b:90:b6:8e:fc:e9:4d:41:7f:b0:
         1c:bd:0d:3d:49:7f:a0:59:99:81:64:e2:ba:be:f7:08:bb:99:
         d3:37:14:8c:1d:c8:0f:f1:b2:1f:a5:b3:a1:90:38:9d:97:64:
         b2:26:ac:49:bc:ff:34:17
-----BEGIN CERTIFICATE-----
MIIF5zCCA8+gAwIBAgIBEDANBgkqhkiG9w0BAQsFADCBizEaMBgGA1UEAwwRY2Eu
dGMyMDA3Yi50ZWMubXgxCzAJBgNVBAgMAk5MMQswCQYDVQQGEwJNWDEmMCQGCSqG
SIb3DQEJARYXanVhbi5qb3NlLmdheXRhbkB0ZWMubXgxGTAXBgNVBAoMEFRlYyBk
ZSBNb250ZXJyZXkxEDAOBgNVBAsMB1RDMjAwN0IwHhcNMjMxMTI0MDAwMjU1WhcN
MjQxMTIzMDAwMjU1WjCBgjEgMB4GA1UEAwwXZXF1aXBvMTkudGMyMDA3Yi50ZWMu
bXgxCzAJBgNVBAgMAk5MMQswCQYDVQQGEwJNWDEeMBwGCSqGSIb3DQEJARYPZXF1
aXBvMTlAdGVjLm14MRAwDgYDVQQKDAdUQzIwMDdCMRIwEAYDVQQLDAlFcXVpcG8g
MTkwggIiMA0GCSqGSIb3DQEBAQUAA4ICDwAwggIKAoICAQDjUr98beGtx3vClFTC
sB4pcHotOW4jj50bnGvQQkU7ONwAl6gfDAW1nRf2+r2xAuLnWAV9I8nKWGuDsyfM
vfZn+3yd0BheKE+whzUjjUNHJqTWo83TV9ToNPn670/5+gXnkbD3PD75p6h3nGsU
Sewlfri6JzROOzaxrukxrNDMbc+yC++1j9VcTB/IeJezogGjlu7+/2cfp0ifm7HG
EylB9KeKpc4Ylzb8CxB8lqovq6Dtle73Pyxr7BNqK+29o5PZ4ISl+ydCfXXv84Dx
UWsSbSd3e8Ze2jbFs7TwfIMqYv4NkTf4MSXYRZWz1x/2BzL5cdQlIfX+yf0PRw6+
ek2U8lrsTWDXcF7I6RuspVNFPNXdyRp4TQ1pu3H+xju/hPANdX/eGZkVhL43Lc15
8Ndymfug34I3JLSpt+X7yx8/CL45sF1pDxRU5c2a1tvFTVf3Bbzc9usMJkoZs3DC
tOcfQRT3CA38ioPKPYt4oZcZyfhv2sTlxOMw4HRzl3bZIBcFe+GkIhzgBDOjiSxz
a0TsJ1MLglNnGAn7OJunF3ztmlN7vPirpwNjTxQ/HrzpvKwL9JH1sq5TR/wlZ3Yq
clsUZXuYQf1HD4V2cYl8wr1U/BQyfg6Bel7dftsI6dRpNUKC6NAfFDPIlLO+b2qv
FA5zXxSfNw1C7eL2aWMBP9IEsQIDAQABo10wWzAJBgNVHRMEAjAAMAsGA1UdDwQE
AwIF4DAiBgNVHREEGzAZghdlcXVpcG8xOS50YzIwMDdiLnRlYy5teDAdBgNVHSUE
FjAUBggrBgEFBQcDAQYIKwYBBQUHAwIwDQYJKoZIhvcNAQELBQADggIBAGc6T4y3
KY2dlSM0YTbi0V662DhyromW6SS4/PP9MRTdSdZ+KioWui0Ez62eEmtmOKKnHtN1
5ajb0smYvP/V8CBTgBRzvIYKrOuVT9BMI4wKJ6fxhKRPnyKlDUiOF0PH3NtjTP7x
rDPoZhUYep1t3DJ8/1VqtCErGJHqNa8djn+YiqrH+uRelnBpgMbpLdo72WhRruUR
Y++o8ajiznE25F9H+7NI908TtKiOCTJ6oDZFMacoffNR/eByUdXQhsEsmpFZ3Hl+
YlHgGTazipiyYY2HGXoxJ4nYZvyIbfw2Xrwx4zVvWukPKT25DwxbAl3t7nmCZS0w
4B4XAxt606ZUbRBBr6s0cV1KXphM/xWBF6X8fL4o8PGGSOyxH6cjq+426xtllTvs
7Ot3beavr/TAKRg6CehxTDQ+8nHUOHazzE7gBSZrhNSDZqkfLRoqSZEGxoaLeHdK
P6NUr+GspRElXW2zaMTP11mZ9wlidT04LxDdjYeNZe/7kDt0jlQ7p3xapn6dUTGf
vpa4sY/Kmtx296Ik0dQn3DEryoElFy6V/QGDG1QMagg64p8pDCp+KqTbif2+OCWz
DRx6d97wgaUf3zULpg91UlNUGTnPG5C2jvzpTUF/sBy9DT1Jf6BZmYFk4rq+9wi7
mdM3FIwdyA/xsh+ls6GQOJ2XZLImrEm8/zQX
-----END CERTIFICATE-----